; Function Attrs: mustprogress nofree norecurse nosync nounwind willreturn memory(none) uwtable
define dso_local { i64, i64 } @i128_sub64(i64 %0, i64 %1, i64 noundef %2) local_unnamed_addr #1 {
  %4 = sub i64 %1, %2
  %5 = icmp ugt i64 %2, %1
  %6 = sext i1 %5 to i64
  %7 = add i64 %0, %6
  %.fca.0.insert = insertvalue { i64, i64 } poison, i64 %7, 0
  %.fca.1.insert = insertvalue { i64, i64 } %.fca.0.insert, i64 %4, 1
  ret { i64, i64 } %.fca.1.insert
}